target datalayout = "e-m:e-p270:32:32-p271:32:32-p272:64:64-i64:64-i128:128-f80:128-n8:16:32:64-S128"
target triple = "x86_64-pc-linux-gnu"

%struct.sp_int = type { i16, i16, [129 x i64] }

; Function Attrs: nounwind uwtable
define internal void @_sp_mont_setup(ptr noundef %0, ptr noundef %1) #0 {
  %3 = alloca ptr, align 8
  %4 = alloca ptr, align 8
  %5 = alloca i64, align 8
  %6 = alloca i64, align 8
  %7 = alloca i64, align 8
  store ptr %0, ptr %3, align 8, !tbaa !3
  store ptr %1, ptr %4, align 8, !tbaa !28
  call void @llvm.lifetime.start.p0(i64 8, ptr %5) #8
  %8 = load ptr, ptr %3, align 8, !tbaa !3
  %9 = getelementptr inbounds nuw %struct.sp_int, ptr %8, i32 0, i32 2
  %10 = getelementptr inbounds [129 x i64], ptr %9, i64 0, i64 0
  %11 = load i64, ptr %10, align 8, !tbaa !16
  store i64 %11, ptr %5, align 8, !tbaa !16
  call void @llvm.lifetime.start.p0(i64 8, ptr %6) #8
  %12 = load i64, ptr %5, align 8, !tbaa !16
  %13 = mul i64 3, %12
  %14 = xor i64 %13, 2
  store i64 %14, ptr %6, align 8, !tbaa !16
  call void @llvm.lifetime.start.p0(i64 8, ptr %7) #8
  %15 = load i64, ptr %5, align 8, !tbaa !16
  %16 = load i64, ptr %6, align 8, !tbaa !16
  %17 = mul i64 %15, %16
  %18 = sub i64 1, %17
  store i64 %18, ptr %7, align 8, !tbaa !16
  %19 = load i64, ptr %7, align 8, !tbaa !16
  %20 = add i64 1, %19
  %21 = load i64, ptr %6, align 8, !tbaa !16
  %22 = mul i64 %21, %20
  store i64 %22, ptr %6, align 8, !tbaa !16
  %23 = load i64, ptr %7, align 8, !tbaa !16
  %24 = load i64, ptr %7, align 8, !tbaa !16
  %25 = mul i64 %24, %23
  store i64 %25, ptr %7, align 8, !tbaa !16
  %26 = load i64, ptr %7, align 8, !tbaa !16
  %27 = add i64 1, %26
  %28 = load i64, ptr %6, align 8, !tbaa !16
  %29 = mul i64 %28, %27
  store i64 %29, ptr %6, align 8, !tbaa !16
  %30 = load i64, ptr %7, align 8, !tbaa !16
  %31 = load i64, ptr %7, align 8, !tbaa !16
  %32 = mul i64 %31, %30
  store i64 %32, ptr %7, align 8, !tbaa !16
  %33 = load i64, ptr %7, align 8, !tbaa !16
  %34 = add i64 1, %33
  %35 = load i64, ptr %6, align 8, !tbaa !16
  %36 = mul i64 %35, %34
  store i64 %36, ptr %6, align 8, !tbaa !16
  %37 = load i64, ptr %7, align 8, !tbaa !16
  %38 = load i64, ptr %7, align 8, !tbaa !16
  %39 = mul i64 %38, %37
  store i64 %39, ptr %7, align 8, !tbaa !16
  %40 = load i64, ptr %7, align 8, !tbaa !16
  %41 = add i64 1, %40
  %42 = load i64, ptr %6, align 8, !tbaa !16
  %43 = mul i64 %42, %41
  store i64 %43, ptr %6, align 8, !tbaa !16
  %44 = load i64, ptr %6, align 8, !tbaa !16
  %45 = sub nsw i64 0, %44
  %46 = load ptr, ptr %4, align 8, !tbaa !28
  store i64 %45, ptr %46, align 8, !tbaa !16
  call void @llvm.lifetime.end.p0(i64 8, ptr %7) #8
  call void @llvm.lifetime.end.p0(i64 8, ptr %6) #8
  call void @llvm.lifetime.end.p0(i64 8, ptr %5) #8
  ret void
}

; Function Attrs: nounwind uwtable
define i32 @sp_mont_setup(ptr noundef %0, ptr noundef %1) #0 {
  %3 = alloca ptr, align 8
  %4 = alloca ptr, align 8
  %5 = alloca i32, align 4
  store ptr %0, ptr %3, align 8, !tbaa !3
  store ptr %1, ptr %4, align 8, !tbaa !28
  call void @llvm.lifetime.start.p0(i64 4, ptr %5) #8
  store i32 0, ptr %5, align 4, !tbaa !8
  %6 = load ptr, ptr %3, align 8, !tbaa !3
  %7 = icmp eq ptr %6, null
  br i1 %7, label %11, label %8

8:                                                ; preds = %2
  %9 = load ptr, ptr %4, align 8, !tbaa !28
  %10 = icmp eq ptr %9, null
  br i1 %10, label %11, label %12

11:                                               ; preds = %8, %2
  store i32 -98, ptr %5, align 4, !tbaa !8
  br label %12

12:                                               ; preds = %11, %8
  %13 = load i32, ptr %5, align 4, !tbaa !8
  %14 = icmp eq i32 %13, 0
  br i1 %14, label %15, label %29

15:                                               ; preds = %12
  %16 = load ptr, ptr %3, align 8, !tbaa !3
  %17 = getelementptr inbounds nuw %struct.sp_int, ptr %16, i32 0, i32 0
  %18 = load i16, ptr %17, align 8, !tbaa !15
  %19 = zext i16 %18 to i32
  %20 = icmp ne i32 %19, 0
  br i1 %20, label %21, label %28

21:                                               ; preds = %15
  %22 = load ptr, ptr %3, align 8, !tbaa !3
  %23 = getelementptr inbounds nuw %struct.sp_int, ptr %22, i32 0, i32 2
  %24 = getelementptr inbounds [129 x i64], ptr %23, i64 0, i64 0
  %25 = load i64, ptr %24, align 8, !tbaa !16
  %26 = and i64 %25, 1
  %27 = icmp ne i64 %26, 0
  br i1 %27, label %29, label %28

28:                                               ; preds = %21, %15
  store i32 -98, ptr %5, align 4, !tbaa !8
  br label %29

29:                                               ; preds = %28, %21, %12
  %30 = load i32, ptr %5, align 4, !tbaa !8
  %31 = icmp eq i32 %30, 0
  br i1 %31, label %32, label %35

32:                                               ; preds = %29
  %33 = load ptr, ptr %3, align 8, !tbaa !3
  %34 = load ptr, ptr %4, align 8, !tbaa !28
  call void @_sp_mont_setup(ptr noundef %33, ptr noundef %34)
  br label %35

35:                                               ; preds = %32, %29
  %36 = load i32, ptr %5, align 4, !tbaa !8
  call void @llvm.lifetime.end.p0(i64 4, ptr %5) #8
  ret i32 %36
}