; Function Attrs: mustprogress nofree norecurse nosync nounwind willreturn memory(argmem: readwrite) uwtable
define range(i32 -98, 1) i32 @sp_mont_setup(ptr noundef readonly captures(address_is_null) %0, ptr noundef writeonly captures(address_is_null) %1) local_unnamed_addr #3 {
  %3 = icmp ne ptr %0, null
  %4 = icmp ne ptr %1, null
  %or.cond.not = and i1 %3, %4
  br i1 %or.cond.not, label %5, label %.thread14

5:                                                ; preds = %2
  %6 = load i16, ptr %0, align 8, !tbaa !12
  %.not = icmp eq i16 %6, 0
  br i1 %.not, label %.thread14, label %7

7:                                                ; preds = %5
  %8 = getelementptr i8, ptr %0, i64 8
  %9 = load i64, ptr %8, align 8, !tbaa !8
  %10 = and i64 %9, 1
  %.not10 = icmp eq i64 %10, 0
  br i1 %.not10, label %.thread14, label %.thread

.thread:                                          ; preds = %7
  %11 = mul i64 %9, 3
  %12 = xor i64 %11, 2
  %13 = mul i64 %12, %9
  %14 = sub i64 1, %13
  %15 = sub i64 2, %13
  %16 = mul i64 %15, %12
  %17 = mul i64 %14, %14
  %18 = or disjoint i64 %17, 1
  %19 = mul i64 %16, %18
  %20 = mul i64 %17, %17
  %21 = add i64 %20, 1
  %22 = mul i64 %19, %21
  %23 = mul i64 %20, %20
  %.neg.i = xor i64 %23, -1
  %.neg19.i = mul i64 %22, %.neg.i
  store i64 %.neg19.i, ptr %1, align 8, !tbaa !8
  br label %.thread14

.thread14:                                        ; preds = %2, %7, %5, %.thread
  %.012 = phi i32 [ 0, %.thread ], [ -98, %5 ], [ -98, %7 ], [ -98, %2 ]
  ret i32 %.012
}